target datalayout = "e-m:e-p270:32:32-p271:32:32-p272:64:64-i64:64-i128:128-f80:128-n8:16:32:64-S128"
target triple = "x86_64-pc-linux-gnu"

; Function Attrs: nounwind uwtable
define void @aginit(ptr noundef %0, i32 noundef %1, ptr noundef %2, i32 noundef %3, i32 noundef %4) #0 {
  %6 = alloca ptr, align 8
  %7 = alloca i32, align 4
  %8 = alloca ptr, align 8
  %9 = alloca i32, align 4
  %10 = alloca i32, align 4
  %11 = alloca ptr, align 8
  %12 = alloca ptr, align 8
  %13 = alloca ptr, align 8
  %14 = alloca i32, align 4
  %15 = alloca i8, align 1
  store ptr %0, ptr %6, align 8, !tbaa !30
  store i32 %1, ptr %7, align 4, !tbaa !9
  store ptr %2, ptr %8, align 8, !tbaa !7
  store i32 %3, ptr %9, align 4, !tbaa !9
  store i32 %4, ptr %10, align 4, !tbaa !9
  call void @llvm.lifetime.start.p0(i64 8, ptr %11) #10
  call void @llvm.lifetime.start.p0(i64 8, ptr %12) #10
  call void @llvm.lifetime.start.p0(i64 8, ptr %13) #10
  call void @llvm.lifetime.start.p0(i64 4, ptr %14) #10
  call void @llvm.lifetime.start.p0(i64 1, ptr %15) #10
  %16 = load i32, ptr %9, align 4, !tbaa !9
  %17 = icmp slt i32 %16, 0
  %18 = zext i1 %17 to i8
  store i8 %18, ptr %15, align 1, !tbaa !24
  %19 = load i32, ptr %9, align 4, !tbaa !9
  %20 = call i32 @llvm.abs.i32(i32 %19, i1 true)
  store i32 %20, ptr %14, align 4, !tbaa !9
  %21 = load i32, ptr %7, align 4, !tbaa !9
  switch i32 %21, label %86 [
    i32 0, label %22
    i32 1, label %47
    i32 2, label %47
    i32 3, label %47
  ]

22:                                               ; preds = %5
  %23 = load ptr, ptr %6, align 8, !tbaa !30
  %24 = load ptr, ptr %8, align 8, !tbaa !7
  %25 = load i32, ptr %14, align 4, !tbaa !9
  %26 = load i32, ptr %10, align 4, !tbaa !9
  %27 = call ptr @agbindrec(ptr noundef %23, ptr noundef %24, i32 noundef %25, i32 noundef %26)
  %28 = load i8, ptr %15, align 1, !tbaa !24, !range !26, !noundef !27
  %29 = trunc i8 %28 to i1
  br i1 %29, label %30, label %46

30:                                               ; preds = %22
  %31 = load ptr, ptr %6, align 8, !tbaa !30
  %32 = call ptr @agfstsubg(ptr noundef %31)
  store ptr %32, ptr %13, align 8, !tbaa !30
  br label %33

33:                                               ; preds = %42, %30
  %34 = load ptr, ptr %13, align 8, !tbaa !30
  %35 = icmp ne ptr %34, null
  br i1 %35, label %36, label %45

36:                                               ; preds = %33
  %37 = load ptr, ptr %13, align 8, !tbaa !30
  %38 = load i32, ptr %7, align 4, !tbaa !9
  %39 = load ptr, ptr %8, align 8, !tbaa !7
  %40 = load i32, ptr %9, align 4, !tbaa !9
  %41 = load i32, ptr %10, align 4, !tbaa !9
  call void @aginit(ptr noundef %37, i32 noundef %38, ptr noundef %39, i32 noundef %40, i32 noundef %41)
  br label %42

42:                                               ; preds = %36
  %43 = load ptr, ptr %13, align 8, !tbaa !30
  %44 = call ptr @agnxtsubg(ptr noundef %43)
  store ptr %44, ptr %13, align 8, !tbaa !30
  br label %33, !llvm.loop !36

45:                                               ; preds = %33
  br label %46

46:                                               ; preds = %45, %22
  br label %87

47:                                               ; preds = %5, %5, %5
  %48 = load ptr, ptr %6, align 8, !tbaa !30
  %49 = call ptr @agfstnode(ptr noundef %48)
  store ptr %49, ptr %11, align 8, !tbaa !37
  br label %50

50:                                               ; preds = %81, %47
  %51 = load ptr, ptr %11, align 8, !tbaa !37
  %52 = icmp ne ptr %51, null
  br i1 %52, label %53, label %85

53:                                               ; preds = %50
  %54 = load i32, ptr %7, align 4, !tbaa !9
  %55 = icmp eq i32 %54, 1
  br i1 %55, label %56, label %62

56:                                               ; preds = %53
  %57 = load ptr, ptr %11, align 8, !tbaa !37
  %58 = load ptr, ptr %8, align 8, !tbaa !7
  %59 = load i32, ptr %14, align 4, !tbaa !9
  %60 = load i32, ptr %10, align 4, !tbaa !9
  %61 = call ptr @agbindrec(ptr noundef %57, ptr noundef %58, i32 noundef %59, i32 noundef %60)
  br label %80

62:                                               ; preds = %53
  %63 = load ptr, ptr %6, align 8, !tbaa !30
  %64 = load ptr, ptr %11, align 8, !tbaa !37
  %65 = call ptr @agfstout(ptr noundef %63, ptr noundef %64)
  store ptr %65, ptr %12, align 8, !tbaa !28
  br label %66

66:                                               ; preds = %75, %62
  %67 = load ptr, ptr %12, align 8, !tbaa !28
  %68 = icmp ne ptr %67, null
  br i1 %68, label %69, label %79

69:                                               ; preds = %66
  %70 = load ptr, ptr %12, align 8, !tbaa !28
  %71 = load ptr, ptr %8, align 8, !tbaa !7
  %72 = load i32, ptr %14, align 4, !tbaa !9
  %73 = load i32, ptr %10, align 4, !tbaa !9
  %74 = call ptr @agbindrec(ptr noundef %70, ptr noundef %71, i32 noundef %72, i32 noundef %73)
  br label %75

75:                                               ; preds = %69
  %76 = load ptr, ptr %6, align 8, !tbaa !30
  %77 = load ptr, ptr %12, align 8, !tbaa !28
  %78 = call ptr @agnxtout(ptr noundef %76, ptr noundef %77)
  store ptr %78, ptr %12, align 8, !tbaa !28
  br label %66, !llvm.loop !39

79:                                               ; preds = %66
  br label %80

80:                                               ; preds = %79, %56
  br label %81

81:                                               ; preds = %80
  %82 = load ptr, ptr %6, align 8, !tbaa !30
  %83 = load ptr, ptr %11, align 8, !tbaa !37
  %84 = call ptr @agnxtnode(ptr noundef %82, ptr noundef %83)
  store ptr %84, ptr %11, align 8, !tbaa !37
  br label %50, !llvm.loop !40

85:                                               ; preds = %50
  br label %87

86:                                               ; preds = %5
  br label %87

87:                                               ; preds = %86, %85, %46
  call void @llvm.lifetime.end.p0(i64 1, ptr %15) #10
  call void @llvm.lifetime.end.p0(i64 4, ptr %14) #10
  call void @llvm.lifetime.end.p0(i64 8, ptr %13) #10
  call void @llvm.lifetime.end.p0(i64 8, ptr %12) #10
  call void @llvm.lifetime.end.p0(i64 8, ptr %11) #10
  ret void
}