; Function Attrs: nounwind uwtable
define void @aginit(ptr noundef %0, i32 noundef %1, ptr noundef %2, i32 noundef %3, i32 noundef %4) local_unnamed_addr #0 {
  %6 = tail call i32 @llvm.abs.i32(i32 %3, i1 true)
  switch i32 %1, label %.loopexit [
    i32 0, label %7
    i32 1, label %13
    i32 2, label %13
    i32 3, label %13
  ]

7:                                                ; preds = %5
  %8 = icmp slt i32 %3, 0
  %9 = tail call ptr @agbindrec(ptr noundef %0, ptr noundef %2, i32 noundef %6, i32 noundef %4)
  br i1 %8, label %10, label %.loopexit

10:                                               ; preds = %7
  %11 = tail call ptr @agfstsubg(ptr noundef %0) #11
  %.not3846 = icmp eq ptr %11, null
  br i1 %.not3846, label %.loopexit, label %.lr.ph48

.lr.ph48:                                         ; preds = %10, %.lr.ph48
  %.03447 = phi ptr [ %12, %.lr.ph48 ], [ %11, %10 ]
  tail call void @aginit(ptr noundef nonnull %.03447, i32 noundef 0, ptr noundef %2, i32 noundef %3, i32 noundef %4)
  %12 = tail call ptr @agnxtsubg(ptr noundef nonnull %.03447) #11
  %.not38 = icmp eq ptr %12, null
  br i1 %.not38, label %.loopexit, label %.lr.ph48, !llvm.loop !21

13:                                               ; preds = %5, %5, %5
  %14 = tail call ptr @agfstnode(ptr noundef %0) #11
  %.not43 = icmp eq ptr %14, null
  br i1 %.not43, label %.loopexit, label %.lr.ph45

.lr.ph45:                                         ; preds = %13
  %15 = icmp eq i32 %1, 1
  br i1 %15, label %.lr.ph45.split.us, label %.lr.ph45.split

.lr.ph45.split.us:                                ; preds = %.lr.ph45, %.lr.ph45.split.us
  %.044.us = phi ptr [ %17, %.lr.ph45.split.us ], [ %14, %.lr.ph45 ]
  %16 = tail call ptr @agbindrec(ptr noundef nonnull %.044.us, ptr noundef %2, i32 noundef %6, i32 noundef %4)
  %17 = tail call ptr @agnxtnode(ptr noundef %0, ptr noundef nonnull %.044.us) #11
  %.not.us = icmp eq ptr %17, null
  br i1 %.not.us, label %.loopexit, label %.lr.ph45.split.us, !llvm.loop !22

.lr.ph45.split:                                   ; preds = %.lr.ph45, %.loopexit39
  %.044 = phi ptr [ %21, %.loopexit39 ], [ %14, %.lr.ph45 ]
  %18 = tail call ptr @agfstout(ptr noundef %0, ptr noundef nonnull %.044) #11
  %.not3741 = icmp eq ptr %18, null
  br i1 %.not3741, label %.loopexit39, label %.lr.ph

.lr.ph:                                           ; preds = %.lr.ph45.split, %.lr.ph
  %.03342 = phi ptr [ %20, %.lr.ph ], [ %18, %.lr.ph45.split ]
  %19 = tail call ptr @agbindrec(ptr noundef nonnull %.03342, ptr noundef %2, i32 noundef %6, i32 noundef %4)
  %20 = tail call ptr @agnxtout(ptr noundef %0, ptr noundef nonnull %.03342) #11
  %.not37 = icmp eq ptr %20, null
  br i1 %.not37, label %.loopexit39, label %.lr.ph, !llvm.loop !23

.loopexit39:                                      ; preds = %.lr.ph, %.lr.ph45.split
  %21 = tail call ptr @agnxtnode(ptr noundef %0, ptr noundef nonnull %.044) #11
  %.not = icmp eq ptr %21, null
  br i1 %.not, label %.loopexit, label %.lr.ph45.split, !llvm.loop !22

.loopexit:                                        ; preds = %.loopexit39, %.lr.ph45.split.us, %.lr.ph48, %13, %10, %5, %7
  ret void
}